target datalayout = "e-m:e-p270:32:32-p271:32:32-p272:64:64-i64:64-i128:128-f80:128-n8:16:32:64-S128"
target triple = "x86_64-pc-linux-gnu"

%struct._object = type { %union.anon, ptr }
%union.anon = type { i64 }
%struct.anon = type { i32, i32 }

@_Py_NoneStruct = external global %struct._object, align 8
@.str.28 = private unnamed_addr constant [38 x i8] c"../cpython/Modules/_testcapi/object.c\00", align 1
@.str.33 = private unnamed_addr constant [12 x i8] c"obj == NULL\00", align 1
@.str.34 = private unnamed_addr constant [17 x i8] c"array[0] == NULL\00", align 1
@.str.35 = private unnamed_addr constant [15 x i8] c"p == array + 1\00", align 1
@__PRETTY_FUNCTION__.test_py_setref = private unnamed_addr constant [49 x i8] c"PyObject *test_py_setref(PyObject *, PyObject *)\00", align 1
@.str.36 = private unnamed_addr constant [13 x i8] c"obj2 == NULL\00", align 1
@.str.37 = private unnamed_addr constant [18 x i8] c"array2[0] == NULL\00", align 1
@.str.38 = private unnamed_addr constant [17 x i8] c"p2 == array2 + 1\00", align 1

; Function Attrs: alwaysinline nounwind uwtable
define internal i32 @_Py_IsImmortal(ptr noundef %0) #4 {
  %2 = alloca ptr, align 8
  store ptr %0, ptr %2, align 8, !tbaa !3
  %3 = load ptr, ptr %2, align 8, !tbaa !3
  %4 = getelementptr inbounds nuw %struct._object, ptr %3, i32 0, i32 0
  %5 = getelementptr inbounds nuw %struct.anon, ptr %4, i32 0, i32 0
  %6 = load i32, ptr %5, align 8, !tbaa !16
  %7 = icmp slt i32 %6, 0
  %8 = zext i1 %7 to i32
  ret i32 %8
}

; Function Attrs: inlinehint nounwind uwtable
define internal void @Py_XDECREF(ptr noundef %0) #3 {
  %2 = alloca ptr, align 8
  store ptr %0, ptr %2, align 8, !tbaa !3
  %3 = load ptr, ptr %2, align 8, !tbaa !3
  %4 = icmp ne ptr %3, null
  br i1 %4, label %5, label %7

5:                                                ; preds = %1
  %6 = load ptr, ptr %2, align 8, !tbaa !3
  call void @Py_DECREF(ptr noundef %6)
  br label %7

7:                                                ; preds = %5, %1
  ret void
}

; Function Attrs: alwaysinline nounwind uwtable
define internal void @Py_DECREF(ptr noundef %0) #4 {
  %2 = alloca ptr, align 8
  store ptr %0, ptr %2, align 8, !tbaa !3
  %3 = load ptr, ptr %2, align 8, !tbaa !3
  %4 = call i32 @_Py_IsImmortal(ptr noundef %3)
  %5 = icmp ne i32 %4, 0
  br i1 %5, label %6, label %7

6:                                                ; preds = %1
  br label %16

7:                                                ; preds = %1
  %8 = load ptr, ptr %2, align 8, !tbaa !3
  %9 = getelementptr inbounds nuw %struct._object, ptr %8, i32 0, i32 0
  %10 = getelementptr inbounds nuw %struct.anon, ptr %9, i32 0, i32 0
  %11 = load i32, ptr %10, align 8, !tbaa !16
  %12 = add i32 %11, -1
  store i32 %12, ptr %10, align 8, !tbaa !16
  %13 = icmp eq i32 %12, 0
  br i1 %13, label %14, label %16

14:                                               ; preds = %7
  %15 = load ptr, ptr %2, align 8, !tbaa !3
  call void @_Py_Dealloc(ptr noundef %15)
  br label %16

16:                                               ; preds = %6, %14, %7
  ret void
}

; Function Attrs: nounwind uwtable
define internal ptr @test_py_setref(ptr noundef %0, ptr noundef %1) #0 {
  %3 = alloca ptr, align 8
  %4 = alloca ptr, align 8
  %5 = alloca ptr, align 8
  %6 = alloca ptr, align 8
  %7 = alloca i32, align 4
  %8 = alloca ptr, align 8
  %9 = alloca ptr, align 8
  %10 = alloca ptr, align 8
  %11 = alloca ptr, align 8
  %12 = alloca ptr, align 8
  %13 = alloca ptr, align 8
  %14 = alloca ptr, align 8
  %15 = alloca [1 x ptr], align 8
  %16 = alloca ptr, align 8
  %17 = alloca ptr, align 8
  %18 = alloca ptr, align 8
  %19 = alloca [1 x ptr], align 8
  %20 = alloca ptr, align 8
  %21 = alloca ptr, align 8
  %22 = alloca ptr, align 8
  %23 = alloca ptr, align 8
  %24 = alloca ptr, align 8
  store ptr %0, ptr %4, align 8, !tbaa !3
  store ptr %1, ptr %5, align 8, !tbaa !3
  call void @llvm.lifetime.start.p0(i64 8, ptr %6) #6
  %25 = call ptr @PyList_New(i64 noundef 0)
  store ptr %25, ptr %6, align 8, !tbaa !3
  %26 = load ptr, ptr %6, align 8, !tbaa !3
  %27 = icmp eq ptr %26, null
  br i1 %27, label %28, label %29

28:                                               ; preds = %2
  store ptr null, ptr %3, align 8
  store i32 1, ptr %7, align 4
  br label %166

29:                                               ; preds = %2
  br label %30

30:                                               ; preds = %29
  call void @llvm.lifetime.start.p0(i64 8, ptr %8) #6
  store ptr %6, ptr %8, align 8, !tbaa !12
  call void @llvm.lifetime.start.p0(i64 8, ptr %9) #6
  %31 = load ptr, ptr %8, align 8, !tbaa !12
  %32 = load ptr, ptr %31, align 8, !tbaa !3
  store ptr %32, ptr %9, align 8, !tbaa !3
  %33 = load ptr, ptr %8, align 8, !tbaa !12
  store ptr null, ptr %33, align 8, !tbaa !3
  %34 = load ptr, ptr %9, align 8, !tbaa !3
  call void @Py_DECREF(ptr noundef %34)
  call void @llvm.lifetime.end.p0(i64 8, ptr %9) #6
  call void @llvm.lifetime.end.p0(i64 8, ptr %8) #6
  br label %35

35:                                               ; preds = %30
  br label %36

36:                                               ; preds = %35
  %37 = load ptr, ptr %6, align 8, !tbaa !3
  %38 = icmp eq ptr %37, null
  br i1 %38, label %39, label %40

39:                                               ; preds = %36
  br label %42

40:                                               ; preds = %36
  call void @__assert_fail(ptr noundef @.str.33, ptr noundef @.str.28, i32 noundef 324, ptr noundef @__PRETTY_FUNCTION__.test_py_setref) #7
  unreachable

41:                                               ; No predecessors!
  br label %42

42:                                               ; preds = %41, %39
  call void @llvm.lifetime.start.p0(i64 8, ptr %10) #6
  %43 = call ptr @PyList_New(i64 noundef 0)
  store ptr %43, ptr %10, align 8, !tbaa !3
  %44 = load ptr, ptr %10, align 8, !tbaa !3
  %45 = icmp eq ptr %44, null
  br i1 %45, label %46, label %47

46:                                               ; preds = %42
  store ptr null, ptr %3, align 8
  store i32 1, ptr %7, align 4
  br label %165

47:                                               ; preds = %42
  br label %48

48:                                               ; preds = %47
  call void @llvm.lifetime.start.p0(i64 8, ptr %11) #6
  store ptr %10, ptr %11, align 8, !tbaa !12
  call void @llvm.lifetime.start.p0(i64 8, ptr %12) #6
  %49 = load ptr, ptr %11, align 8, !tbaa !12
  %50 = load ptr, ptr %49, align 8, !tbaa !3
  store ptr %50, ptr %12, align 8, !tbaa !3
  %51 = load ptr, ptr %11, align 8, !tbaa !12
  store ptr null, ptr %51, align 8, !tbaa !3
  %52 = load ptr, ptr %12, align 8, !tbaa !3
  call void @Py_XDECREF(ptr noundef %52)
  call void @llvm.lifetime.end.p0(i64 8, ptr %12) #6
  call void @llvm.lifetime.end.p0(i64 8, ptr %11) #6
  br label %53

53:                                               ; preds = %48
  br label %54

54:                                               ; preds = %53
  %55 = load ptr, ptr %10, align 8, !tbaa !3
  %56 = icmp eq ptr %55, null
  br i1 %56, label %57, label %58

57:                                               ; preds = %54
  br label %60

58:                                               ; preds = %54
  call void @__assert_fail(ptr noundef @.str.36, ptr noundef @.str.28, i32 noundef 332, ptr noundef @__PRETTY_FUNCTION__.test_py_setref) #7
  unreachable

59:                                               ; No predecessors!
  br label %60

60:                                               ; preds = %59, %57
  br label %61

61:                                               ; preds = %60
  call void @llvm.lifetime.start.p0(i64 8, ptr %13) #6
  store ptr %10, ptr %13, align 8, !tbaa !12
  call void @llvm.lifetime.start.p0(i64 8, ptr %14) #6
  %62 = load ptr, ptr %13, align 8, !tbaa !12
  %63 = load ptr, ptr %62, align 8, !tbaa !3
  store ptr %63, ptr %14, align 8, !tbaa !3
  %64 = load ptr, ptr %13, align 8, !tbaa !12
  store ptr null, ptr %64, align 8, !tbaa !3
  %65 = load ptr, ptr %14, align 8, !tbaa !3
  call void @Py_XDECREF(ptr noundef %65)
  call void @llvm.lifetime.end.p0(i64 8, ptr %14) #6
  call void @llvm.lifetime.end.p0(i64 8, ptr %13) #6
  br label %66

66:                                               ; preds = %61
  br label %67

67:                                               ; preds = %66
  %68 = load ptr, ptr %10, align 8, !tbaa !3
  %69 = icmp eq ptr %68, null
  br i1 %69, label %70, label %71

70:                                               ; preds = %67
  br label %73

71:                                               ; preds = %67
  call void @__assert_fail(ptr noundef @.str.36, ptr noundef @.str.28, i32 noundef 335, ptr noundef @__PRETTY_FUNCTION__.test_py_setref) #7
  unreachable

72:                                               ; No predecessors!
  br label %73

73:                                               ; preds = %72, %70
  call void @llvm.lifetime.start.p0(i64 8, ptr %15) #6
  %74 = call ptr @PyList_New(i64 noundef 0)
  %75 = getelementptr [1 x ptr], ptr %15, i64 0, i64 0
  store ptr %74, ptr %75, align 8, !tbaa !3
  %76 = getelementptr [1 x ptr], ptr %15, i64 0, i64 0
  %77 = load ptr, ptr %76, align 8, !tbaa !3
  %78 = icmp eq ptr %77, null
  br i1 %78, label %79, label %80

79:                                               ; preds = %73
  store ptr null, ptr %3, align 8
  store i32 1, ptr %7, align 4
  br label %164

80:                                               ; preds = %73
  call void @llvm.lifetime.start.p0(i64 8, ptr %16) #6
  %81 = getelementptr inbounds [1 x ptr], ptr %15, i64 0, i64 0
  store ptr %81, ptr %16, align 8, !tbaa !12
  br label %82

82:                                               ; preds = %80
  call void @llvm.lifetime.start.p0(i64 8, ptr %17) #6
  %83 = load ptr, ptr %16, align 8, !tbaa !12
  %84 = getelementptr ptr, ptr %83, i32 1
  store ptr %84, ptr %16, align 8, !tbaa !12
  store ptr %83, ptr %17, align 8, !tbaa !12
  call void @llvm.lifetime.start.p0(i64 8, ptr %18) #6
  %85 = load ptr, ptr %17, align 8, !tbaa !12
  %86 = load ptr, ptr %85, align 8, !tbaa !3
  store ptr %86, ptr %18, align 8, !tbaa !3
  %87 = load ptr, ptr %17, align 8, !tbaa !12
  store ptr null, ptr %87, align 8, !tbaa !3
  %88 = load ptr, ptr %18, align 8, !tbaa !3
  call void @Py_DECREF(ptr noundef %88)
  call void @llvm.lifetime.end.p0(i64 8, ptr %18) #6
  call void @llvm.lifetime.end.p0(i64 8, ptr %17) #6
  br label %89

89:                                               ; preds = %82
  br label %90

90:                                               ; preds = %89
  %91 = getelementptr [1 x ptr], ptr %15, i64 0, i64 0
  %92 = load ptr, ptr %91, align 8, !tbaa !3
  %93 = icmp eq ptr %92, null
  br i1 %93, label %94, label %95

94:                                               ; preds = %90
  br label %97

95:                                               ; preds = %90
  call void @__assert_fail(ptr noundef @.str.34, ptr noundef @.str.28, i32 noundef 346, ptr noundef @__PRETTY_FUNCTION__.test_py_setref) #7
  unreachable

96:                                               ; No predecessors!
  br label %97

97:                                               ; preds = %96, %94
  %98 = load ptr, ptr %16, align 8, !tbaa !12
  %99 = getelementptr inbounds [1 x ptr], ptr %15, i64 0, i64 0
  %100 = getelementptr ptr, ptr %99, i64 1
  %101 = icmp eq ptr %98, %100
  br i1 %101, label %102, label %103

102:                                              ; preds = %97
  br label %105

103:                                              ; preds = %97
  call void @__assert_fail(ptr noundef @.str.35, ptr noundef @.str.28, i32 noundef 347, ptr noundef @__PRETTY_FUNCTION__.test_py_setref) #7
  unreachable

104:                                              ; No predecessors!
  br label %105

105:                                              ; preds = %104, %102
  call void @llvm.lifetime.start.p0(i64 8, ptr %19) #6
  %106 = call ptr @PyList_New(i64 noundef 0)
  %107 = getelementptr [1 x ptr], ptr %19, i64 0, i64 0
  store ptr %106, ptr %107, align 8, !tbaa !3
  %108 = getelementptr [1 x ptr], ptr %19, i64 0, i64 0
  %109 = load ptr, ptr %108, align 8, !tbaa !3
  %110 = icmp eq ptr %109, null
  br i1 %110, label %111, label %112

111:                                              ; preds = %105
  store ptr null, ptr %3, align 8
  store i32 1, ptr %7, align 4
  br label %163

112:                                              ; preds = %105
  call void @llvm.lifetime.start.p0(i64 8, ptr %20) #6
  %113 = getelementptr inbounds [1 x ptr], ptr %19, i64 0, i64 0
  store ptr %113, ptr %20, align 8, !tbaa !12
  br label %114

114:                                              ; preds = %112
  call void @llvm.lifetime.start.p0(i64 8, ptr %21) #6
  %115 = load ptr, ptr %20, align 8, !tbaa !12
  %116 = getelementptr ptr, ptr %115, i32 1
  store ptr %116, ptr %20, align 8, !tbaa !12
  store ptr %115, ptr %21, align 8, !tbaa !12
  call void @llvm.lifetime.start.p0(i64 8, ptr %22) #6
  %117 = load ptr, ptr %21, align 8, !tbaa !12
  %118 = load ptr, ptr %117, align 8, !tbaa !3
  store ptr %118, ptr %22, align 8, !tbaa !3
  %119 = load ptr, ptr %21, align 8, !tbaa !12
  store ptr null, ptr %119, align 8, !tbaa !3
  %120 = load ptr, ptr %22, align 8, !tbaa !3
  call void @Py_XDECREF(ptr noundef %120)
  call void @llvm.lifetime.end.p0(i64 8, ptr %22) #6
  call void @llvm.lifetime.end.p0(i64 8, ptr %21) #6
  br label %121

121:                                              ; preds = %114
  br label %122

122:                                              ; preds = %121
  %123 = getelementptr [1 x ptr], ptr %19, i64 0, i64 0
  %124 = load ptr, ptr %123, align 8, !tbaa !3
  %125 = icmp eq ptr %124, null
  br i1 %125, label %126, label %127

126:                                              ; preds = %122
  br label %129

127:                                              ; preds = %122
  call void @__assert_fail(ptr noundef @.str.37, ptr noundef @.str.28, i32 noundef 358, ptr noundef @__PRETTY_FUNCTION__.test_py_setref) #7
  unreachable

128:                                              ; No predecessors!
  br label %129

129:                                              ; preds = %128, %126
  %130 = load ptr, ptr %20, align 8, !tbaa !12
  %131 = getelementptr inbounds [1 x ptr], ptr %19, i64 0, i64 0
  %132 = getelementptr ptr, ptr %131, i64 1
  %133 = icmp eq ptr %130, %132
  br i1 %133, label %134, label %135

134:                                              ; preds = %129
  br label %137

135:                                              ; preds = %129
  call void @__assert_fail(ptr noundef @.str.38, ptr noundef @.str.28, i32 noundef 359, ptr noundef @__PRETTY_FUNCTION__.test_py_setref) #7
  unreachable

136:                                              ; No predecessors!
  br label %137

137:                                              ; preds = %136, %134
  %138 = getelementptr inbounds [1 x ptr], ptr %19, i64 0, i64 0
  store ptr %138, ptr %20, align 8, !tbaa !12
  br label %139

139:                                              ; preds = %137
  call void @llvm.lifetime.start.p0(i64 8, ptr %23) #6
  %140 = load ptr, ptr %20, align 8, !tbaa !12
  %141 = getelementptr ptr, ptr %140, i32 1
  store ptr %141, ptr %20, align 8, !tbaa !12
  store ptr %140, ptr %23, align 8, !tbaa !12
  call void @llvm.lifetime.start.p0(i64 8, ptr %24) #6
  %142 = load ptr, ptr %23, align 8, !tbaa !12
  %143 = load ptr, ptr %142, align 8, !tbaa !3
  store ptr %143, ptr %24, align 8, !tbaa !3
  %144 = load ptr, ptr %23, align 8, !tbaa !12
  store ptr null, ptr %144, align 8, !tbaa !3
  %145 = load ptr, ptr %24, align 8, !tbaa !3
  call void @Py_XDECREF(ptr noundef %145)
  call void @llvm.lifetime.end.p0(i64 8, ptr %24) #6
  call void @llvm.lifetime.end.p0(i64 8, ptr %23) #6
  br label %146

146:                                              ; preds = %139
  br label %147

147:                                              ; preds = %146
  %148 = getelementptr [1 x ptr], ptr %19, i64 0, i64 0
  %149 = load ptr, ptr %148, align 8, !tbaa !3
  %150 = icmp eq ptr %149, null
  br i1 %150, label %151, label %152

151:                                              ; preds = %147
  br label %154

152:                                              ; preds = %147
  call void @__assert_fail(ptr noundef @.str.37, ptr noundef @.str.28, i32 noundef 364, ptr noundef @__PRETTY_FUNCTION__.test_py_setref) #7
  unreachable

153:                                              ; No predecessors!
  br label %154

154:                                              ; preds = %153, %151
  %155 = load ptr, ptr %20, align 8, !tbaa !12
  %156 = getelementptr inbounds [1 x ptr], ptr %19, i64 0, i64 0
  %157 = getelementptr ptr, ptr %156, i64 1
  %158 = icmp eq ptr %155, %157
  br i1 %158, label %159, label %160

159:                                              ; preds = %154
  br label %162

160:                                              ; preds = %154
  call void @__assert_fail(ptr noundef @.str.38, ptr noundef @.str.28, i32 noundef 365, ptr noundef @__PRETTY_FUNCTION__.test_py_setref) #7
  unreachable

161:                                              ; No predecessors!
  br label %162

162:                                              ; preds = %161, %159
  store ptr @_Py_NoneStruct, ptr %3, align 8
  store i32 1, ptr %7, align 4
  call void @llvm.lifetime.end.p0(i64 8, ptr %20) #6
  br label %163

163:                                              ; preds = %162, %111
  call void @llvm.lifetime.end.p0(i64 8, ptr %19) #6
  call void @llvm.lifetime.end.p0(i64 8, ptr %16) #6
  br label %164

164:                                              ; preds = %163, %79
  call void @llvm.lifetime.end.p0(i64 8, ptr %15) #6
  br label %165

165:                                              ; preds = %164, %46
  call void @llvm.lifetime.end.p0(i64 8, ptr %10) #6
  br label %166

166:                                              ; preds = %165, %28
  call void @llvm.lifetime.end.p0(i64 8, ptr %6) #6
  %167 = load ptr, ptr %3, align 8
  ret ptr %167
}