; Function Attrs: nounwind uwtable
define internal noundef ptr @test_py_setref(ptr readnone captures(none) %0, ptr readnone captures(none) %1) #0 {
  %3 = tail call ptr @PyList_New(i64 noundef 0) #5
  %4 = icmp eq ptr %3, null
  br i1 %4, label %Py_XDECREF.exit43, label %5

5:                                                ; preds = %2
  %6 = load i32, ptr %3, align 8, !tbaa !8
  %.not.i = icmp sgt i32 %6, -1
  br i1 %.not.i, label %7, label %Py_DECREF.exit

7:                                                ; preds = %5
  %8 = add nsw i32 %6, -1
  store i32 %8, ptr %3, align 8, !tbaa !8
  %9 = icmp eq i32 %8, 0
  br i1 %9, label %10, label %Py_DECREF.exit

10:                                               ; preds = %7
  tail call void @_Py_Dealloc(ptr noundef nonnull %3) #5
  br label %Py_DECREF.exit

Py_DECREF.exit:                                   ; preds = %5, %7, %10
  %11 = tail call ptr @PyList_New(i64 noundef 0) #5
  %12 = icmp eq ptr %11, null
  br i1 %12, label %Py_XDECREF.exit43, label %13

13:                                               ; preds = %Py_DECREF.exit
  %14 = load i32, ptr %11, align 8, !tbaa !8
  %.not.i.i = icmp sgt i32 %14, -1
  br i1 %.not.i.i, label %15, label %Py_XDECREF.exit

15:                                               ; preds = %13
  %16 = add nsw i32 %14, -1
  store i32 %16, ptr %11, align 8, !tbaa !8
  %17 = icmp eq i32 %16, 0
  br i1 %17, label %18, label %Py_XDECREF.exit

18:                                               ; preds = %15
  tail call void @_Py_Dealloc(ptr noundef nonnull %11) #5
  br label %Py_XDECREF.exit

Py_XDECREF.exit:                                  ; preds = %13, %15, %18
  %19 = tail call ptr @PyList_New(i64 noundef 0) #5
  %20 = icmp eq ptr %19, null
  br i1 %20, label %Py_XDECREF.exit43, label %21

21:                                               ; preds = %Py_XDECREF.exit
  %22 = load i32, ptr %19, align 8, !tbaa !8
  %.not.i37 = icmp sgt i32 %22, -1
  br i1 %.not.i37, label %23, label %Py_DECREF.exit38

23:                                               ; preds = %21
  %24 = add nsw i32 %22, -1
  store i32 %24, ptr %19, align 8, !tbaa !8
  %25 = icmp eq i32 %24, 0
  br i1 %25, label %26, label %Py_DECREF.exit38

26:                                               ; preds = %23
  tail call void @_Py_Dealloc(ptr noundef nonnull %19) #5
  br label %Py_DECREF.exit38

Py_DECREF.exit38:                                 ; preds = %21, %23, %26
  %27 = tail call ptr @PyList_New(i64 noundef 0) #5
  %28 = icmp eq ptr %27, null
  br i1 %28, label %Py_XDECREF.exit43, label %29

29:                                               ; preds = %Py_DECREF.exit38
  %30 = load i32, ptr %27, align 8, !tbaa !8
  %.not.i.i42 = icmp sgt i32 %30, -1
  br i1 %.not.i.i42, label %31, label %Py_XDECREF.exit43

31:                                               ; preds = %29
  %32 = add nsw i32 %30, -1
  store i32 %32, ptr %27, align 8, !tbaa !8
  %33 = icmp eq i32 %32, 0
  br i1 %33, label %34, label %Py_XDECREF.exit43

34:                                               ; preds = %31
  tail call void @_Py_Dealloc(ptr noundef nonnull %27) #5
  br label %Py_XDECREF.exit43

Py_XDECREF.exit43:                                ; preds = %34, %31, %29, %Py_DECREF.exit, %Py_DECREF.exit38, %Py_XDECREF.exit, %2
  %.0 = phi ptr [ null, %2 ], [ null, %Py_DECREF.exit ], [ null, %Py_XDECREF.exit ], [ null, %Py_DECREF.exit38 ], [ @_Py_NoneStruct, %29 ], [ @_Py_NoneStruct, %31 ], [ @_Py_NoneStruct, %34 ]
  ret ptr %.0
}